target datalayout = "e-m:e-p270:32:32-p271:32:32-p272:64:64-i64:64-i128:128-f80:128-n8:16:32:64-S128"
target triple = "x86_64-pc-linux-gnu"

@hf_kafka_include_group_authorized_ops = internal global i32 0, align 4

; Function Attrs: null_pointer_is_valid sspstrong uwtable
define internal i32 @dissect_kafka_describe_groups_request(ptr noundef %0, ptr noundef %1, ptr noundef %2, i32 noundef %3, i16 noundef signext %4) #0 {
  %6 = alloca ptr, align 8
  %7 = alloca ptr, align 8
  %8 = alloca ptr, align 8
  %9 = alloca i32, align 4
  %10 = alloca i16, align 2
  store ptr %0, ptr %6, align 8
  store ptr %1, ptr %7, align 8
  store ptr %2, ptr %8, align 8
  store i32 %3, ptr %9, align 4
  store i16 %4, ptr %10, align 2
  %11 = load ptr, ptr %8, align 8
  %12 = load ptr, ptr %6, align 8
  %13 = load ptr, ptr %7, align 8
  %14 = load i32, ptr %9, align 4
  %15 = load i16, ptr %10, align 2
  %16 = sext i16 %15 to i32
  %17 = icmp sge i32 %16, 5
  %18 = zext i1 %17 to i32
  %19 = load i16, ptr %10, align 2
  %20 = call i32 @dissect_kafka_array(ptr noundef %11, ptr noundef %12, ptr noundef %13, i32 noundef %14, i32 noundef %18, i16 noundef signext %19, ptr noundef @dissect_kafka_describe_groups_request_group_id, ptr noundef null)
  store i32 %20, ptr %9, align 4
  %21 = load i16, ptr %10, align 2
  %22 = sext i16 %21 to i32
  %23 = icmp sge i32 %22, 3
  br i1 %23, label %24, label %32

24:                                               ; preds = %5
  %25 = load ptr, ptr %8, align 8
  %26 = load i32, ptr @hf_kafka_include_group_authorized_ops, align 4
  %27 = load ptr, ptr %6, align 8
  %28 = load i32, ptr %9, align 4
  %29 = call ptr @proto_tree_add_item(ptr noundef %25, i32 noundef %26, ptr noundef %27, i32 noundef %28, i32 noundef 1, i32 noundef 0)
  %30 = load i32, ptr %9, align 4
  %31 = add i32 %30, 1
  store i32 %31, ptr %9, align 4
  br label %32

32:                                               ; preds = %24, %5
  %33 = load i16, ptr %10, align 2
  %34 = sext i16 %33 to i32
  %35 = icmp sge i32 %34, 5
  br i1 %35, label %36, label %42

36:                                               ; preds = %32
  %37 = load ptr, ptr %6, align 8
  %38 = load ptr, ptr %7, align 8
  %39 = load ptr, ptr %8, align 8
  %40 = load i32, ptr %9, align 4
  %41 = call i32 @dissect_kafka_tagged_fields(ptr noundef %37, ptr noundef %38, ptr noundef %39, i32 noundef %40, i16 noundef signext 0)
  store i32 %41, ptr %9, align 4
  br label %42

42:                                               ; preds = %36, %32
  %43 = load i32, ptr %9, align 4
  ret i32 %43
}