; Function Attrs: null_pointer_is_valid sspstrong uwtable
define internal fastcc i32 @dissect_kafka_describe_groups_request(ptr noundef %0, ptr noundef %1, ptr noundef %2, i32 noundef %3, i16 noundef signext %4) unnamed_addr #0 {
  %6 = icmp sgt i16 %4, 4
  %7 = zext i1 %6 to i32
  %8 = tail call fastcc i32 @dissect_kafka_array(ptr noundef %2, ptr noundef %0, ptr noundef %1, i32 noundef %3, i32 noundef %7, i16 noundef signext %4, ptr noundef nonnull @dissect_kafka_describe_groups_request_group_id, ptr noundef null)
  %9 = icmp sgt i16 %4, 2
  br i1 %9, label %10, label %.thread

10:                                               ; preds = %5
  %11 = load i32, ptr @hf_kafka_include_group_authorized_ops, align 4
  %12 = tail call ptr @proto_tree_add_item(ptr noundef %2, i32 noundef %11, ptr noundef %0, i32 noundef %8, i32 noundef 1, i32 noundef 0)
  %13 = add i32 %8, 1
  br i1 %6, label %14, label %.thread

14:                                               ; preds = %10
  %15 = tail call fastcc i32 @dissect_kafka_tagged_fields(ptr noundef %0, ptr noundef %1, ptr noundef %2, i32 noundef %13)
  br label %.thread

.thread:                                          ; preds = %5, %14, %10
  %.1 = phi i32 [ %15, %14 ], [ %13, %10 ], [ %8, %5 ]
  ret i32 %.1
}